target datalayout = "e-m:e-p270:32:32-p271:32:32-p272:64:64-i64:64-i128:128-f80:128-n8:16:32:64-S128"
target triple = "x86_64-unknown-linux-gnu"

%"class.re2::Regexp" = type { i8, i8, i16, i16, i16, %union.anon, ptr, %union.anon.0 }
%union.anon = type { ptr }
%union.anon.0 = type { %struct.anon.1 }
%struct.anon.1 = type { i32, ptr }
%struct.anon.2 = type { i32, ptr }

; Function Attrs: mustprogress nounwind uwtable
define linkonce_odr noundef i32 @_ZN3re2anENS_6Regexp10ParseFlagsES1_(i32 noundef %a, i32 noundef %b) #0 comdat {
entry:
  %a.addr = alloca i32, align 4
  %b.addr = alloca i32, align 4
  store i32 %a, ptr %a.addr, align 4
  store i32 %b, ptr %b.addr, align 4
  %0 = load i32, ptr %a.addr, align 4
  %1 = load i32, ptr %b.addr, align 4
  %and = and i32 %0, %1
  ret i32 %and
}

; Function Attrs: mustprogress nounwind uwtable
define linkonce_odr noundef i32 @_ZN3re26Regexp11parse_flagsEv(ptr noundef nonnull align 8 dereferenceable(40) %this) #0 comdat align 2 {
entry:
  %this.addr = alloca ptr, align 8
  store ptr %this, ptr %this.addr, align 8
  %this1 = load ptr, ptr %this.addr, align 8
  %parse_flags_ = getelementptr inbounds %"class.re2::Regexp", ptr %this1, i32 0, i32 2
  %0 = load i16, ptr %parse_flags_, align 2
  %conv = zext i16 %0 to i32
  ret i32 %conv
}

; Function Attrs: mustprogress nounwind uwtable
define linkonce_odr noundef ptr @_ZN3re26Regexp3subEv(ptr noundef nonnull align 8 dereferenceable(40) %this) #0 comdat align 2 {
entry:
  %retval = alloca ptr, align 8
  %this.addr = alloca ptr, align 8
  store ptr %this, ptr %this.addr, align 8
  %this1 = load ptr, ptr %this.addr, align 8
  %nsub_ = getelementptr inbounds %"class.re2::Regexp", ptr %this1, i32 0, i32 4
  %0 = load i16, ptr %nsub_, align 2
  %conv = zext i16 %0 to i32
  %cmp = icmp sle i32 %conv, 1
  br i1 %cmp, label %if.then, label %if.else

if.then:                                          ; preds = %entry
  %1 = getelementptr inbounds %"class.re2::Regexp", ptr %this1, i32 0, i32 5
  store ptr %1, ptr %retval, align 8
  br label %return

if.else:                                          ; preds = %entry
  %2 = getelementptr inbounds %"class.re2::Regexp", ptr %this1, i32 0, i32 5
  %3 = load ptr, ptr %2, align 8
  store ptr %3, ptr %retval, align 8
  br label %return

return:                                           ; preds = %if.else, %if.then
  %4 = load ptr, ptr %retval, align 8
  ret ptr %4
}

; Function Attrs: mustprogress uwtable
define noundef zeroext i1 @_ZN3re26Regexp22RequiredPrefixForAccelEPNSt7__cxx1112basic_stringIcSt11char_traitsIcESaIcEEEPb(ptr noundef nonnull align 8 dereferenceable(40) %this, ptr noundef %prefix, ptr noundef %foldcase) #3 align 2 {
entry:
  %retval = alloca i1, align 1
  %this.addr = alloca ptr, align 8
  %prefix.addr = alloca ptr, align 8
  %foldcase.addr = alloca ptr, align 8
  %re = alloca ptr, align 8
  %latin1 = alloca i8, align 1
  %runes = alloca ptr, align 8
  %nrunes = alloca i32, align 4
  store ptr %this, ptr %this.addr, align 8
  store ptr %prefix, ptr %prefix.addr, align 8
  store ptr %foldcase, ptr %foldcase.addr, align 8
  %this1 = load ptr, ptr %this.addr, align 8
  %0 = load ptr, ptr %prefix.addr, align 8
  call void @_ZNSt7__cxx1112basic_stringIcSt11char_traitsIcESaIcEE5clearEv(ptr noundef nonnull align 8 dereferenceable(32) %0) #16
  %1 = load ptr, ptr %foldcase.addr, align 8
  store i8 0, ptr %1, align 1
  %op_ = getelementptr inbounds %"class.re2::Regexp", ptr %this1, i32 0, i32 0
  %2 = load i8, ptr %op_, align 8
  %conv = zext i8 %2 to i32
  %cmp = icmp eq i32 %conv, 5
  br i1 %cmp, label %land.lhs.true, label %cond.false

land.lhs.true:                                    ; preds = %entry
  %nsub_ = getelementptr inbounds %"class.re2::Regexp", ptr %this1, i32 0, i32 4
  %3 = load i16, ptr %nsub_, align 2
  %conv2 = zext i16 %3 to i32
  %cmp3 = icmp sgt i32 %conv2, 0
  br i1 %cmp3, label %cond.true, label %cond.false

cond.true:                                        ; preds = %land.lhs.true
  %call = call noundef ptr @_ZN3re26Regexp3subEv(ptr noundef nonnull align 8 dereferenceable(40) %this1)
  %arrayidx = getelementptr inbounds ptr, ptr %call, i64 0
  %4 = load ptr, ptr %arrayidx, align 8
  br label %cond.end

cond.false:                                       ; preds = %land.lhs.true, %entry
  br label %cond.end

cond.end:                                         ; preds = %cond.false, %cond.true
  %cond = phi ptr [ %4, %cond.true ], [ %this1, %cond.false ]
  store ptr %cond, ptr %re, align 8
  br label %while.cond

while.cond:                                       ; preds = %if.end, %cond.end
  %5 = load ptr, ptr %re, align 8
  %op_4 = getelementptr inbounds %"class.re2::Regexp", ptr %5, i32 0, i32 0
  %6 = load i8, ptr %op_4, align 8
  %conv5 = zext i8 %6 to i32
  %cmp6 = icmp eq i32 %conv5, 11
  br i1 %cmp6, label %while.body, label %while.end

while.body:                                       ; preds = %while.cond
  %7 = load ptr, ptr %re, align 8
  %call7 = call noundef ptr @_ZN3re26Regexp3subEv(ptr noundef nonnull align 8 dereferenceable(40) %7)
  %arrayidx8 = getelementptr inbounds ptr, ptr %call7, i64 0
  %8 = load ptr, ptr %arrayidx8, align 8
  store ptr %8, ptr %re, align 8
  %9 = load ptr, ptr %re, align 8
  %op_9 = getelementptr inbounds %"class.re2::Regexp", ptr %9, i32 0, i32 0
  %10 = load i8, ptr %op_9, align 8
  %conv10 = zext i8 %10 to i32
  %cmp11 = icmp eq i32 %conv10, 5
  br i1 %cmp11, label %land.lhs.true12, label %if.end

land.lhs.true12:                                  ; preds = %while.body
  %11 = load ptr, ptr %re, align 8
  %nsub_13 = getelementptr inbounds %"class.re2::Regexp", ptr %11, i32 0, i32 4
  %12 = load i16, ptr %nsub_13, align 2
  %conv14 = zext i16 %12 to i32
  %cmp15 = icmp sgt i32 %conv14, 0
  br i1 %cmp15, label %if.then, label %if.end

if.then:                                          ; preds = %land.lhs.true12
  %13 = load ptr, ptr %re, align 8
  %call16 = call noundef ptr @_ZN3re26Regexp3subEv(ptr noundef nonnull align 8 dereferenceable(40) %13)
  %arrayidx17 = getelementptr inbounds ptr, ptr %call16, i64 0
  %14 = load ptr, ptr %arrayidx17, align 8
  store ptr %14, ptr %re, align 8
  br label %if.end

if.end:                                           ; preds = %if.then, %land.lhs.true12, %while.body
  br label %while.cond, !llvm.loop !17

while.end:                                        ; preds = %while.cond
  %15 = load ptr, ptr %re, align 8
  %op_18 = getelementptr inbounds %"class.re2::Regexp", ptr %15, i32 0, i32 0
  %16 = load i8, ptr %op_18, align 8
  %conv19 = zext i8 %16 to i32
  %cmp20 = icmp ne i32 %conv19, 3
  br i1 %cmp20, label %land.lhs.true21, label %if.end26

land.lhs.true21:                                  ; preds = %while.end
  %17 = load ptr, ptr %re, align 8
  %op_22 = getelementptr inbounds %"class.re2::Regexp", ptr %17, i32 0, i32 0
  %18 = load i8, ptr %op_22, align 8
  %conv23 = zext i8 %18 to i32
  %cmp24 = icmp ne i32 %conv23, 4
  br i1 %cmp24, label %if.then25, label %if.end26

if.then25:                                        ; preds = %land.lhs.true21
  store i1 false, ptr %retval, align 1
  br label %return

if.end26:                                         ; preds = %land.lhs.true21, %while.end
  %19 = load ptr, ptr %re, align 8
  %call27 = call noundef i32 @_ZN3re26Regexp11parse_flagsEv(ptr noundef nonnull align 8 dereferenceable(40) %19)
  %call28 = call noundef i32 @_ZN3re2anENS_6Regexp10ParseFlagsES1_(i32 noundef %call27, i32 noundef 32)
  %cmp29 = icmp ne i32 %call28, 0
  %frombool = zext i1 %cmp29 to i8
  store i8 %frombool, ptr %latin1, align 1
  %20 = load ptr, ptr %re, align 8
  %op_30 = getelementptr inbounds %"class.re2::Regexp", ptr %20, i32 0, i32 0
  %21 = load i8, ptr %op_30, align 8
  %conv31 = zext i8 %21 to i32
  %cmp32 = icmp eq i32 %conv31, 3
  br i1 %cmp32, label %cond.true33, label %cond.false34

cond.true33:                                      ; preds = %if.end26
  %22 = load ptr, ptr %re, align 8
  %23 = getelementptr inbounds %"class.re2::Regexp", ptr %22, i32 0, i32 7
  br label %cond.end35

cond.false34:                                     ; preds = %if.end26
  %24 = load ptr, ptr %re, align 8
  %25 = getelementptr inbounds %"class.re2::Regexp", ptr %24, i32 0, i32 7
  %runes_ = getelementptr inbounds %struct.anon.2, ptr %25, i32 0, i32 1
  %26 = load ptr, ptr %runes_, align 8
  br label %cond.end35

cond.end35:                                       ; preds = %cond.false34, %cond.true33
  %cond36 = phi ptr [ %23, %cond.true33 ], [ %26, %cond.false34 ]
  store ptr %cond36, ptr %runes, align 8
  %27 = load ptr, ptr %re, align 8
  %op_37 = getelementptr inbounds %"class.re2::Regexp", ptr %27, i32 0, i32 0
  %28 = load i8, ptr %op_37, align 8
  %conv38 = zext i8 %28 to i32
  %cmp39 = icmp eq i32 %conv38, 3
  br i1 %cmp39, label %cond.true40, label %cond.false41

cond.true40:                                      ; preds = %cond.end35
  br label %cond.end42

cond.false41:                                     ; preds = %cond.end35
  %29 = load ptr, ptr %re, align 8
  %30 = getelementptr inbounds %"class.re2::Regexp", ptr %29, i32 0, i32 7
  %nrunes_ = getelementptr inbounds %struct.anon.2, ptr %30, i32 0, i32 0
  %31 = load i32, ptr %nrunes_, align 8
  br label %cond.end42

cond.end42:                                       ; preds = %cond.false41, %cond.true40
  %cond43 = phi i32 [ 1, %cond.true40 ], [ %31, %cond.false41 ]
  store i32 %cond43, ptr %nrunes, align 4
  %32 = load i8, ptr %latin1, align 1
  %tobool = trunc i8 %32 to i1
  %33 = load ptr, ptr %runes, align 8
  %34 = load i32, ptr %nrunes, align 4
  %35 = load ptr, ptr %prefix.addr, align 8
  call void @_ZN3re219ConvertRunesToBytesEbPiiPNSt7__cxx1112basic_stringIcSt11char_traitsIcESaIcEEE(i1 noundef zeroext %tobool, ptr noundef %33, i32 noundef %34, ptr noundef %35)
  %36 = load ptr, ptr %re, align 8
  %call44 = call noundef i32 @_ZN3re26Regexp11parse_flagsEv(ptr noundef nonnull align 8 dereferenceable(40) %36)
  %call45 = call noundef i32 @_ZN3re2anENS_6Regexp10ParseFlagsES1_(i32 noundef %call44, i32 noundef 1)
  %cmp46 = icmp ne i32 %call45, 0
  %37 = load ptr, ptr %foldcase.addr, align 8
  %frombool47 = zext i1 %cmp46 to i8
  store i8 %frombool47, ptr %37, align 1
  store i1 true, ptr %retval, align 1
  br label %return

return:                                           ; preds = %cond.end42, %if.then25
  %38 = load i1, ptr %retval, align 1
  ret i1 %38
}