; Function Attrs: mustprogress uwtable
define noundef zeroext i1 @_ZN3re26Regexp22RequiredPrefixForAccelEPNSt7__cxx1112basic_stringIcSt11char_traitsIcESaIcEEEPb(ptr noundef nonnull align 8 dereferenceable(40) %this, ptr noundef nonnull %prefix, ptr nocapture noundef writeonly %foldcase) local_unnamed_addr #7 align 2 {
entry:
  tail call void @_ZNSt7__cxx1112basic_stringIcSt11char_traitsIcESaIcEE5clearEv(ptr noundef nonnull align 8 dereferenceable(32) %prefix) #25
  store i8 0, ptr %foldcase, align 1
  %0 = load i8, ptr %this, align 8
  %cmp = icmp ne i8 %0, 5
  %nsub_ = getelementptr inbounds i8, ptr %this, i64 6
  %1 = load i16, ptr %nsub_, align 2
  %cmp3.not = icmp eq i16 %1, 0
  %or.cond = select i1 %cmp, i1 true, i1 %cmp3.not
  br i1 %or.cond, label %while.cond.preheader, label %cond.true

cond.true:                                        ; preds = %entry
  %cmp.i = icmp ult i16 %1, 2
  %2 = getelementptr inbounds i8, ptr %this, i64 8
  %3 = load ptr, ptr %2, align 8
  %retval.0.i = select i1 %cmp.i, ptr %2, ptr %3
  br label %while.cond.sink.split

while.cond.sink.split:                            ; preds = %cond.true, %if.then
  %retval.0.i21.sink = phi ptr [ %retval.0.i21, %if.then ], [ %retval.0.i, %cond.true ]
  %4 = load ptr, ptr %retval.0.i21.sink, align 8
  br label %while.cond.preheader

while.cond.preheader:                             ; preds = %entry, %while.cond.sink.split
  %re.0.ph = phi ptr [ %4, %while.cond.sink.split ], [ %this, %entry ]
  br label %while.cond

while.cond:                                       ; preds = %while.cond.backedge, %while.cond.preheader
  %re.0 = phi ptr [ %re.0.ph, %while.cond.preheader ], [ %9, %while.cond.backedge ]
  %5 = load i8, ptr %re.0, align 8
  switch i8 %5, label %return [
    i8 11, label %while.body
    i8 3, label %if.end26
    i8 4, label %if.end26
  ]

while.body:                                       ; preds = %while.cond
  %nsub_.i16 = getelementptr inbounds i8, ptr %re.0, i64 6
  %6 = load i16, ptr %nsub_.i16, align 2
  %cmp.i17 = icmp ult i16 %6, 2
  %7 = getelementptr inbounds i8, ptr %re.0, i64 8
  %8 = load ptr, ptr %7, align 8
  %retval.0.i18 = select i1 %cmp.i17, ptr %7, ptr %8
  %9 = load ptr, ptr %retval.0.i18, align 8
  %10 = load i8, ptr %9, align 8
  %cmp11 = icmp eq i8 %10, 5
  br i1 %cmp11, label %land.lhs.true12, label %while.cond.backedge

land.lhs.true12:                                  ; preds = %while.body
  %nsub_13 = getelementptr inbounds i8, ptr %9, i64 6
  %11 = load i16, ptr %nsub_13, align 2
  %cmp15.not = icmp eq i16 %11, 0
  br i1 %cmp15.not, label %while.cond.backedge, label %if.then

while.cond.backedge:                              ; preds = %land.lhs.true12, %while.body
  br label %while.cond, !llvm.loop !29

if.then:                                          ; preds = %land.lhs.true12
  %cmp.i20 = icmp eq i16 %11, 1
  %12 = getelementptr inbounds i8, ptr %9, i64 8
  %13 = load ptr, ptr %12, align 8
  %retval.0.i21 = select i1 %cmp.i20, ptr %12, ptr %13
  br label %while.cond.sink.split, !llvm.loop !29

if.end26:                                         ; preds = %while.cond, %while.cond
  %parse_flags_.i = getelementptr inbounds i8, ptr %re.0, i64 2
  %14 = load i16, ptr %parse_flags_.i, align 2
  %15 = and i16 %14, 32
  %cmp29 = icmp ne i16 %15, 0
  %cmp32 = icmp eq i8 %5, 3
  br i1 %cmp32, label %cond.end35.thread, label %cond.false41

cond.end35.thread:                                ; preds = %if.end26
  %16 = getelementptr inbounds i8, ptr %re.0, i64 24
  br label %cond.end42

cond.false41:                                     ; preds = %if.end26
  %runes_ = getelementptr inbounds i8, ptr %re.0, i64 32
  %17 = load ptr, ptr %runes_, align 8
  %18 = getelementptr inbounds i8, ptr %re.0, i64 24
  %19 = load i32, ptr %18, align 8
  br label %cond.end42

cond.end42:                                       ; preds = %cond.end35.thread, %cond.false41
  %cond3626 = phi ptr [ %17, %cond.false41 ], [ %16, %cond.end35.thread ]
  %cond43 = phi i32 [ %19, %cond.false41 ], [ 1, %cond.end35.thread ]
  tail call void @_ZN3re219ConvertRunesToBytesEbPiiPNSt7__cxx1112basic_stringIcSt11char_traitsIcESaIcEEE(i1 noundef zeroext %cmp29, ptr noundef %cond3626, i32 noundef %cond43, ptr noundef nonnull %prefix)
  %20 = load i16, ptr %parse_flags_.i, align 2
  %21 = trunc i16 %20 to i8
  %frombool47 = and i8 %21, 1
  store i8 %frombool47, ptr %foldcase, align 1
  br label %return

return:                                           ; preds = %while.cond, %cond.end42
  %retval.0 = phi i1 [ true, %cond.end42 ], [ false, %while.cond ]
  ret i1 %retval.0
}